Certificate:
    Data:
        Version: 3 (0x2)
        Serial Number:
            bf:ac:59:c2:c7:a4:ba:1a:8c:a2:71:85:27:38:e3:ac
        Signature Algorithm: sha256WithRSAEncryption
        Issuer: CN=NWVPN
        Validity
            Not Before: May  9 16:05:04 2025 GMT
            Not After : Aug 12 16:05:04 2027 GMT
        Subject: CN=developers
        Subject Public Key Info:
            Public Key Algorithm: rsaEncryption
                Public-Key: (2048 bit)
                Modulus:
                    00:a2:ea:4c:37:8b:13:69:41:ba:f1:5e:50:ef:7a:
                    1e:25:12:63:f5:e0:66:60:62:3c:11:8f:9e:1c:a5:
                    2e:4a:be:54:e9:f5:ba:20:60:fe:af:55:6a:c2:d5:
                    a8:5d:41:b4:06:f2:ce:c9:8b:00:e8:f3:3f:38:87:
                    3b:e3:0e:1f:5d:25:0f:d8:68:6b:c7:ba:02:7e:e9:
                    eb:67:77:5d:93:11:d6:54:cb:67:ed:34:92:96:a4:
                    02:94:63:fc:c3:fa:f5:23:a9:c3:b8:1e:5c:6c:fa:
                    25:36:05:50:6d:67:2a:7f:54:cd:a9:31:08:49:06:
                    96:ec:f1:55:5c:92:70:a8:3b:98:96:c4:1b:df:a7:
                    89:e7:eb:62:84:61:1b:04:bb:15:0a:c4:30:f9:a3:
                    6a:59:3b:2d:2f:38:45:9c:b2:23:cb:fb:99:ee:0f:
                    90:0b:f5:a5:fa:56:7a:99:0b:38:ab:61:6f:ac:de:
                    5d:5a:76:2c:99:cd:ef:0f:c9:a1:8f:d3:74:a0:2d:
                    0b:4b:49:8f:24:df:64:a2:90:74:a2:7e:8e:c8:6e:
                    3e:54:b0:ac:94:24:db:5b:27:34:f9:d8:8f:54:e7:
                    68:44:f9:fc:08:f4:7a:56:5b:70:e7:1f:3e:40:58:
                    7b:42:cc:24:8b:32:d4:92:fb:23:2f:9b:9d:29:5f:
                    1f:39
                Exponent: 65537 (0x10001)
        X509v3 extensions:
            X509v3 Basic Constraints: 
                CA:FALSE
            X509v3 Subject Key Identifier: 
                F4:B5:91:65:B4:86:2F:40:89:21:C0:3D:17:28:3D:77:35:46:35:51
            X509v3 Authority Key Identifier: 
                keyid:88:0E:48:97:B3:6E:7A:92:41:BC:BF:EF:7F:BD:D8:87:D6:18:2F:0B
                DirName:/CN=NWVPN
                serial:10:60:A0:DB:91:11:B7:4E:7C:5F:C7:A2:C6:80:97:E0:7B:95:1A:CC
            X509v3 Extended Key Usage: 
                TLS Web Client Authentication
            X509v3 Key Usage: 
                Digital Signature
    Signature Algorithm: sha256WithRSAEncryption
    Signature Value:
        6d:76:fc:5b:eb:6f:c8:78:4a:73:ef:49:47:17:dd:86:d9:e4:
        ee:45:4c:86:c8:2e:a9:fd:44:06:ec:02:57:c1:fa:06:da:5b:
        c0:4c:78:b7:0e:3d:12:9e:15:42:cd:e4:37:58:11:3b:3b:a1:
        3f:15:21:5f:c8:25:ab:27:4c:89:de:da:21:93:70:7d:90:0c:
        8a:98:cd:19:63:9f:1e:81:6a:c2:08:4d:78:af:eb:4b:6e:cb:
        23:3f:5b:be:5c:58:fa:b9:27:e6:03:31:e3:79:72:c0:85:e2:
        a1:9e:fb:06:bf:6b:5b:59:39:89:94:f6:ae:21:71:65:72:01:
        d0:71:f9:1e:fa:db:85:4d:58:22:14:43:92:b1:cb:d3:65:41:
        f7:57:80:89:01:db:9d:7b:dd:87:0d:fc:49:c6:6e:83:9d:a2:
        9a:33:d6:d0:c9:6a:3d:c3:c8:3e:1c:85:c3:2b:f0:83:6c:b1:
        47:51:93:7c:62:1e:f1:07:b0:40:b2:4e:a9:93:06:77:2c:27:
        a0:96:cc:3b:5a:2d:bc:ba:d2:cd:79:9b:65:7f:da:02:90:1f:
        12:d2:6d:80:5c:8b:de:52:d5:3f:b0:bb:d9:e7:f7:92:70:6b:
        af:9a:9e:38:e3:ee:3a:28:b6:f7:0c:43:6d:54:33:b1:83:69:
        bd:fa:00:db
-----BEGIN CERTIFICATE-----
MIIDTTCCAjWgAwIBAgIRAL+sWcLHpLoajKJxhSc446wwDQYJKoZIhvcNAQELBQAw
EDEOMAwGA1UEAwwFTldWUE4wHhcNMjUwNTA5MTYwNTA0WhcNMjcwODEyMTYwNTA0
WjAVMRMwEQYDVQQDDApkZXZlbG9wZXJzMIIBIjANBgkqhkiG9w0BAQEFAAOCAQ8A
MIIBCgKCAQEAoupMN4sTaUG68V5Q73oeJRJj9eBmYGI8EY+eHKUuSr5U6fW6IGD+
r1VqwtWoXUG0BvLOyYsA6PM/OIc74w4fXSUP2Ghrx7oCfunrZ3ddkxHWVMtn7TSS
lqQClGP8w/r1I6nDuB5cbPolNgVQbWcqf1TNqTEISQaW7PFVXJJwqDuYlsQb36eJ
5+tihGEbBLsVCsQw+aNqWTstLzhFnLIjy/uZ7g+QC/Wl+lZ6mQs4q2FvrN5dWnYs
mc3vD8mhj9N0oC0LS0mPJN9kopB0on6OyG4+VLCslCTbWyc0+diPVOdoRPn8CPR6
Vltw5x8+QFh7QswkizLUkvsjL5udKV8fOQIDAQABo4GcMIGZMAkGA1UdEwQCMAAw
HQYDVR0OBBYEFPS1kWW0hi9AiSHAPRcoPXc1RjVRMEsGA1UdIwREMEKAFIgOSJez
bnqSQby/73+92IfWGC8LoRSkEjAQMQ4wDAYDVQQDDAVOV1ZQToIUEGCg25ERt058
X8eixoCX4HuVGswwEwYDVR0lBAwwCgYIKwYBBQUHAwIwCwYDVR0PBAQDAgeAMA0G
CSqGSIb3DQEBCwUAA4IBAQBtdvxb62/IeEpz70lHF92G2eTuRUyGyC6p/UQG7AJX
wfoG2lvATHi3Dj0SnhVCzeQ3WBE7O6E/FSFfyCWrJ0yJ3tohk3B9kAyKmM0ZY58e
gWrCCE14r+tLbssjP1u+XFj6uSfmAzHjeXLAheKhnvsGv2tbWTmJlPauIXFlcgHQ
cfke+tuFTVgiFEOSscvTZUH3V4CJAdude92HDfxJxm6DnaKaM9bQyWo9w8g+HIXD
K/CDbLFHUZN8Yh7xB7BAsk6pkwZ3LCeglsw7Wi28utLNeZtlf9oCkB8S0m2AXIve
UtU/sLvZ5/eScGuvmp444+46KLb3DENtVDOxg2m9+gDb
-----END CERTIFICATE-----